target datalayout = "e-m:e-p270:32:32-p271:32:32-p272:64:64-i64:64-i128:128-f80:128-n8:16:32:64-S128"
target triple = "x86_64-pc-linux-gnu"

%struct.node_record = type { ptr, ptr, i16, i64, i64, ptr, ptr, ptr, i16, ptr, i16, i16, i32, i32, i64, ptr, i16, i16, ptr, ptr, ptr, ptr, ptr, i64, i64, ptr, ptr, ptr, ptr, i32, ptr, ptr, i64, i64, i32, ptr, i64, ptr, i32, i16, ptr, ptr, i32, ptr, i32, i8, ptr, i32, i16, i16, ptr, i16, i64, i16, i64, ptr, i64, i32, i16, i64, i16, ptr, i16, i64, ptr, i64, i16, i32, i16, ptr, ptr, ptr, i16, i32, i16, i16, i32, ptr, i16, i32 }

@avail_node_bitmap = dso_local global ptr null, align 8
@bf_ignore_node_bitmap = dso_local global ptr null, align 8

; Function Attrs: nounwind uwtable
define dso_local void @make_node_avail(ptr noundef %0) #0 {
  %2 = alloca ptr, align 8
  store ptr %0, ptr %2, align 8
  %3 = load ptr, ptr %2, align 8
  %4 = getelementptr inbounds nuw %struct.node_record, ptr %3, i32 0, i32 44
  %5 = load i32, ptr %4, align 8
  %6 = zext i32 %5 to i64
  %7 = and i64 %6, 8388608
  %8 = icmp ne i64 %7, 0
  br i1 %8, label %16, label %9

9:                                                ; preds = %1
  %10 = load ptr, ptr %2, align 8
  %11 = getelementptr inbounds nuw %struct.node_record, ptr %10, i32 0, i32 44
  %12 = load i32, ptr %11, align 8
  %13 = zext i32 %12 to i64
  %14 = and i64 %13, 262144
  %15 = icmp ne i64 %14, 0
  br i1 %15, label %16, label %17

16:                                               ; preds = %9, %1
  br label %28

17:                                               ; preds = %9
  %18 = load ptr, ptr @avail_node_bitmap, align 8
  %19 = load ptr, ptr %2, align 8
  %20 = getelementptr inbounds nuw %struct.node_record, ptr %19, i32 0, i32 29
  %21 = load i32, ptr %20, align 8
  %22 = zext i32 %21 to i64
  call void @bit_set(ptr noundef %18, i64 noundef %22)
  %23 = load ptr, ptr @bf_ignore_node_bitmap, align 8
  %24 = load ptr, ptr %2, align 8
  %25 = getelementptr inbounds nuw %struct.node_record, ptr %24, i32 0, i32 29
  %26 = load i32, ptr %25, align 8
  %27 = zext i32 %26 to i64
  call void @bit_set(ptr noundef %23, i64 noundef %27)
  br label %28

28:                                               ; preds = %17, %16
  ret void
}