; Function Attrs: nounwind uwtable
define dso_local void @make_node_avail(ptr noundef readonly captures(none) %0) local_unnamed_addr #0 {
  %2 = getelementptr inbounds nuw i8, ptr %0, i64 320
  %3 = load i32, ptr %2, align 8
  %4 = and i32 %3, 8650752
  %or.cond = icmp eq i32 %4, 0
  br i1 %or.cond, label %5, label %13

5:                                                ; preds = %1
  %6 = load ptr, ptr @avail_node_bitmap, align 8
  %7 = getelementptr inbounds nuw i8, ptr %0, i64 208
  %8 = load i32, ptr %7, align 8
  %9 = zext i32 %8 to i64
  tail call void @bit_set(ptr noundef %6, i64 noundef %9) #15
  %10 = load ptr, ptr @bf_ignore_node_bitmap, align 8
  %11 = load i32, ptr %7, align 8
  %12 = zext i32 %11 to i64
  tail call void @bit_set(ptr noundef %10, i64 noundef %12) #15
  br label %13

13:                                               ; preds = %1, %5
  ret void
}